; Function Attrs: nounwind uwtable
define void @Wlc_NtkSaveOneNode(ptr noundef readonly captures(none) %0, ptr noundef %1, ptr noundef readonly captures(none) %2, ptr noundef captures(none) %3) local_unnamed_addr #0 {
  %.val28 = load i32, ptr %3, align 8, !tbaa !28
  %.val28.fr = freeze i32 %.val28
  %5 = getelementptr i8, ptr %1, i64 8
  %.val29 = load i32, ptr %5, align 8, !tbaa !31
  %6 = getelementptr i8, ptr %1, i64 12
  %.val30 = load i32, ptr %6, align 4, !tbaa !32
  %7 = sub i32 %.val29, %.val30
  %8 = getelementptr i8, ptr %0, i64 640
  %.val = load ptr, ptr %8, align 8, !tbaa !10
  %9 = ptrtoint ptr %1 to i64
  %10 = ptrtoint ptr %.val to i64
  %11 = sub i64 %9, %10
  %12 = sdiv exact i64 %11, 24
  %13 = getelementptr i8, ptr %0, i64 760
  %.val26 = load ptr, ptr %13, align 8, !tbaa !26
  %sext = shl i64 %12, 32
  %14 = ashr exact i64 %sext, 30
  %15 = getelementptr inbounds i8, ptr %.val26, i64 %14
  %16 = load i32, ptr %15, align 4, !tbaa !9
  %17 = getelementptr i8, ptr %0, i64 776
  %18 = getelementptr i8, ptr %2, i64 816
  %19 = getelementptr i8, ptr %2, i64 832
  %20 = icmp sgt i32 %.val28.fr, 0
  %wide.trip.count.i = zext nneg i32 %.val28.fr to i64
  %21 = sext i32 %16 to i64
  %smax50 = tail call i32 @llvm.abs.i32(i32 %7, i1 false)
  %22 = add nuw i32 %smax50, 1
  %wide.trip.count51 = zext i32 %22 to i64
  br i1 %20, label %.split.us, label %.split

.split.us:                                        ; preds = %4, %Abc_TtNot.exit39.us
  %indvars.iv47 = phi i64 [ %indvars.iv.next48, %Abc_TtNot.exit39.us ], [ 0, %4 ]
  %.val27.us = load ptr, ptr %17, align 8, !tbaa !26
  %23 = getelementptr i32, ptr %.val27.us, i64 %indvars.iv47
  %24 = getelementptr i32, ptr %23, i64 %21
  %25 = load i32, ptr %24, align 4, !tbaa !9
  %26 = ashr i32 %25, 1
  %.val31.us = load i32, ptr %18, align 8, !tbaa !33
  %.val32.us = load ptr, ptr %19, align 8, !tbaa !48
  %27 = getelementptr i8, ptr %.val32.us, i64 8
  %.val32.val.us = load ptr, ptr %27, align 8, !tbaa !49
  %28 = mul nsw i32 %26, %.val31.us
  %29 = sext i32 %28 to i64
  %30 = getelementptr inbounds i64, ptr %.val32.val.us, i64 %29
  %31 = load i64, ptr %30, align 8, !tbaa !52
  %32 = trunc i64 %31 to i32
  %33 = and i32 %32, 1
  %.not.us = icmp eq i32 %33, 0
  br i1 %.not.us, label %Abc_TtNot.exit.thread.us, label %.lr.ph.i.us

.lr.ph.i.us:                                      ; preds = %.split.us, %.lr.ph.i.us
  %indvars.iv.i.us = phi i64 [ %indvars.iv.next.i.us, %.lr.ph.i.us ], [ 0, %.split.us ]
  %34 = getelementptr inbounds nuw i64, ptr %30, i64 %indvars.iv.i.us
  %35 = load i64, ptr %34, align 8, !tbaa !52
  %36 = xor i64 %35, -1
  store i64 %36, ptr %34, align 8, !tbaa !52
  %indvars.iv.next.i.us = add nuw nsw i64 %indvars.iv.i.us, 1
  %exitcond.not.i.us = icmp eq i64 %indvars.iv.next.i.us, %wide.trip.count.i
  br i1 %exitcond.not.i.us, label %Abc_TtNot.exit.us, label %.lr.ph.i.us, !llvm.loop !53

Abc_TtNot.exit.us:                                ; preds = %.lr.ph.i.us
  %37 = tail call fastcc i32 @Vec_MemHashInsert(ptr noundef nonnull %3, ptr noundef nonnull %30)
  br label %.lr.ph.i35.us

.lr.ph.i35.us:                                    ; preds = %.lr.ph.i35.us, %Abc_TtNot.exit.us
  %indvars.iv.i36.us = phi i64 [ 0, %Abc_TtNot.exit.us ], [ %indvars.iv.next.i37.us, %.lr.ph.i35.us ]
  %38 = getelementptr inbounds nuw i64, ptr %30, i64 %indvars.iv.i36.us
  %39 = load i64, ptr %38, align 8, !tbaa !52
  %40 = xor i64 %39, -1
  store i64 %40, ptr %38, align 8, !tbaa !52
  %indvars.iv.next.i37.us = add nuw nsw i64 %indvars.iv.i36.us, 1
  %exitcond.not.i38.us = icmp eq i64 %indvars.iv.next.i37.us, %wide.trip.count.i
  br i1 %exitcond.not.i38.us, label %Abc_TtNot.exit39.us, label %.lr.ph.i35.us, !llvm.loop !53

Abc_TtNot.exit.thread.us:                         ; preds = %.split.us
  %41 = tail call fastcc i32 @Vec_MemHashInsert(ptr noundef nonnull %3, ptr noundef nonnull %30)
  br label %Abc_TtNot.exit39.us

Abc_TtNot.exit39.us:                              ; preds = %.lr.ph.i35.us, %Abc_TtNot.exit.thread.us
  %42 = phi i32 [ %41, %Abc_TtNot.exit.thread.us ], [ %37, %.lr.ph.i35.us ]
  %43 = xor i32 %25, %32
  %44 = and i32 %43, 1
  %45 = tail call i32 (ptr, ...) @printf(ptr noundef nonnull dereferenceable(1) @.str, i32 noundef %42, i32 noundef %44)
  %46 = load ptr, ptr @stdout, align 8, !tbaa !54
  tail call void @Extra_PrintHex(ptr noundef %46, ptr noundef nonnull %30, i32 noundef 8) #18
  %putchar25.us = tail call i32 @putchar(i32 10)
  %indvars.iv.next48 = add nuw nsw i64 %indvars.iv47, 1
  %exitcond52.not = icmp eq i64 %indvars.iv.next48, %wide.trip.count51
  br i1 %exitcond52.not, label %.split44.us, label %.split.us, !llvm.loop !56

.split:                                           ; preds = %4, %.split
  %indvars.iv = phi i64 [ %indvars.iv.next, %.split ], [ 0, %4 ]
  %.val27 = load ptr, ptr %17, align 8, !tbaa !26
  %47 = getelementptr i32, ptr %.val27, i64 %indvars.iv
  %48 = getelementptr i32, ptr %47, i64 %21
  %49 = load i32, ptr %48, align 4, !tbaa !9
  %50 = ashr i32 %49, 1
  %.val31 = load i32, ptr %18, align 8, !tbaa !33
  %.val32 = load ptr, ptr %19, align 8, !tbaa !48
  %51 = getelementptr i8, ptr %.val32, i64 8
  %.val32.val = load ptr, ptr %51, align 8, !tbaa !49
  %52 = mul nsw i32 %50, %.val31
  %53 = sext i32 %52 to i64
  %54 = getelementptr inbounds i64, ptr %.val32.val, i64 %53
  %55 = load i64, ptr %54, align 8, !tbaa !52
  %56 = trunc i64 %55 to i32
  %57 = tail call fastcc i32 @Vec_MemHashInsert(ptr noundef nonnull %3, ptr noundef nonnull %54)
  %58 = xor i32 %49, %56
  %59 = and i32 %58, 1
  %60 = tail call i32 (ptr, ...) @printf(ptr noundef nonnull dereferenceable(1) @.str, i32 noundef %57, i32 noundef %59)
  %61 = load ptr, ptr @stdout, align 8, !tbaa !54
  tail call void @Extra_PrintHex(ptr noundef %61, ptr noundef nonnull %54, i32 noundef 8) #18
  %putchar25 = tail call i32 @putchar(i32 10)
  %indvars.iv.next = add nuw nsw i64 %indvars.iv, 1
  %exitcond.not = icmp eq i64 %indvars.iv.next, %wide.trip.count51
  br i1 %exitcond.not, label %.split44.us, label %.split, !llvm.loop !56

.split44.us:                                      ; preds = %.split, %Abc_TtNot.exit39.us
  %putchar = tail call i32 @putchar(i32 10)
  ret void
}